target datalayout = "e-m:e-p270:32:32-p271:32:32-p272:64:64-i64:64-i128:128-f80:128-n8:16:32:64-S128"
target triple = "x86_64-pc-linux-gnu"

%struct.ref_dir = type { i32, i32, i32, ptr, ptr }
%struct.ref_entry = type { i8, %union.anon, [0 x i8] }
%union.anon = type { %struct.ref_value }
%struct.ref_value = type { %struct.object_id, ptr }
%struct.object_id = type { [32 x i8], i32 }
%struct.ref_cache = type { ptr, ptr, ptr }

@.str.2 = private unnamed_addr constant [1 x i8] zeroinitializer, align 1
@.str.4 = private unnamed_addr constant [27 x i8] c"size_t overflow: %lu + %lu\00", align 1

; Function Attrs: inlinehint nounwind uwtable
define internal i64 @st_add(i64 noundef %0, i64 noundef %1) #2 {
  %3 = alloca i64, align 8
  %4 = alloca i64, align 8
  store i64 %0, ptr %3, align 8, !tbaa !19
  store i64 %1, ptr %4, align 8, !tbaa !19
  %5 = load i64, ptr %4, align 8, !tbaa !19
  %6 = load i64, ptr %3, align 8, !tbaa !19
  %7 = sub i64 -1, %6
  %8 = icmp ugt i64 %5, %7
  br i1 %8, label %9, label %12

9:                                                ; preds = %2
  %10 = load i64, ptr %3, align 8, !tbaa !19
  %11 = load i64, ptr %4, align 8, !tbaa !19
  call void (ptr, ...) @die(ptr noundef @.str.4, i64 noundef %10, i64 noundef %11) #9
  unreachable

12:                                               ; preds = %2
  %13 = load i64, ptr %3, align 8, !tbaa !19
  %14 = load i64, ptr %4, align 8, !tbaa !19
  %15 = add i64 %13, %14
  ret i64 %15
}

; Function Attrs: nounwind uwtable
define dso_local ptr @create_dir_entry(ptr noundef %0, ptr noundef %1, i64 noundef %2) #0 {
  %4 = alloca ptr, align 8
  %5 = alloca ptr, align 8
  %6 = alloca i64, align 8
  %7 = alloca ptr, align 8
  %8 = alloca i64, align 8
  store ptr %0, ptr %4, align 8, !tbaa !36
  store ptr %1, ptr %5, align 8, !tbaa !27
  store i64 %2, ptr %6, align 8, !tbaa !19
  call void @llvm.lifetime.start.p0(i64 8, ptr %7) #10
  br label %9

9:                                                ; preds = %3
  call void @llvm.lifetime.start.p0(i64 8, ptr %8) #10
  %10 = load i64, ptr %6, align 8, !tbaa !19
  store i64 %10, ptr %8, align 8, !tbaa !19
  %11 = load i64, ptr %8, align 8, !tbaa !19
  %12 = call i64 @st_add(i64 noundef 56, i64 noundef %11)
  %13 = call i64 @st_add(i64 noundef %12, i64 noundef 1)
  %14 = call ptr @xcalloc(i64 noundef 1, i64 noundef %13)
  store ptr %14, ptr %7, align 8, !tbaa !9
  %15 = load ptr, ptr %7, align 8, !tbaa !9
  %16 = getelementptr inbounds nuw %struct.ref_entry, ptr %15, i32 0, i32 2
  %17 = getelementptr inbounds [0 x i8], ptr %16, i64 0, i64 0
  %18 = load ptr, ptr %5, align 8, !tbaa !27
  %19 = load i64, ptr %8, align 8, !tbaa !19
  call void @llvm.memcpy.p0.p0.i64(ptr align 8 %17, ptr align 1 %18, i64 %19, i1 false)
  call void @llvm.lifetime.end.p0(i64 8, ptr %8) #10
  br label %20

20:                                               ; preds = %9
  br label %21

21:                                               ; preds = %20
  %22 = load ptr, ptr %4, align 8, !tbaa !36
  %23 = load ptr, ptr %7, align 8, !tbaa !9
  %24 = getelementptr inbounds nuw %struct.ref_entry, ptr %23, i32 0, i32 1
  %25 = getelementptr inbounds nuw %struct.ref_dir, ptr %24, i32 0, i32 3
  store ptr %22, ptr %25, align 8, !tbaa !21
  %26 = load ptr, ptr %7, align 8, !tbaa !9
  %27 = getelementptr inbounds nuw %struct.ref_entry, ptr %26, i32 0, i32 0
  store i8 48, ptr %27, align 8, !tbaa !21
  %28 = load ptr, ptr %7, align 8, !tbaa !9
  call void @llvm.lifetime.end.p0(i64 8, ptr %7) #10
  ret ptr %28
}

; Function Attrs: nounwind uwtable
define dso_local ptr @create_ref_cache(ptr noundef %0, ptr noundef %1) #0 {
  %3 = alloca ptr, align 8
  %4 = alloca ptr, align 8
  %5 = alloca ptr, align 8
  store ptr %0, ptr %3, align 8, !tbaa !34
  store ptr %1, ptr %4, align 8, !tbaa !35
  call void @llvm.lifetime.start.p0(i64 8, ptr %5) #10
  %6 = call ptr @xcalloc(i64 noundef 1, i64 noundef 24)
  store ptr %6, ptr %5, align 8, !tbaa !36
  %7 = load ptr, ptr %3, align 8, !tbaa !34
  %8 = load ptr, ptr %5, align 8, !tbaa !36
  %9 = getelementptr inbounds nuw %struct.ref_cache, ptr %8, i32 0, i32 1
  store ptr %7, ptr %9, align 8, !tbaa !26
  %10 = load ptr, ptr %4, align 8, !tbaa !35
  %11 = load ptr, ptr %5, align 8, !tbaa !36
  %12 = getelementptr inbounds nuw %struct.ref_cache, ptr %11, i32 0, i32 2
  store ptr %10, ptr %12, align 8, !tbaa !23
  %13 = load ptr, ptr %5, align 8, !tbaa !36
  %14 = call ptr @create_dir_entry(ptr noundef %13, ptr noundef @.str.2, i64 noundef 0)
  %15 = load ptr, ptr %5, align 8, !tbaa !36
  %16 = getelementptr inbounds nuw %struct.ref_cache, ptr %15, i32 0, i32 0
  store ptr %14, ptr %16, align 8, !tbaa !37
  %17 = load ptr, ptr %5, align 8, !tbaa !36
  call void @llvm.lifetime.end.p0(i64 8, ptr %5) #10
  ret ptr %17
}