; Function Attrs: nounwind uwtable
define dso_local ptr @create_ref_cache(ptr noundef %0, ptr noundef %1) local_unnamed_addr #0 {
  %3 = tail call ptr @xcalloc(i64 noundef 1, i64 noundef 24) #11
  %4 = getelementptr inbounds nuw i8, ptr %3, i64 8
  store ptr %0, ptr %4, align 8, !tbaa !22
  %5 = getelementptr inbounds nuw i8, ptr %3, i64 16
  store ptr %1, ptr %5, align 8, !tbaa !19
  %6 = tail call ptr @xcalloc(i64 noundef 1, i64 noundef 57) #11
  %7 = getelementptr inbounds nuw i8, ptr %6, i64 24
  store ptr %3, ptr %7, align 8, !tbaa !17
  store i8 48, ptr %6, align 8, !tbaa !17
  store ptr %6, ptr %3, align 8, !tbaa !25
  ret ptr %3
}